target datalayout = "e-m:e-p270:32:32-p271:32:32-p272:64:64-i64:64-i128:128-f80:128-n8:16:32:64-S128"
target triple = "x86_64-pc-linux-gnu"

@_ZZNKSt3__120__time_get_c_storageIwE7__am_pmEvE5am_pm = internal global ptr null, align 8
@_ZGVZNKSt3__120__time_get_c_storageIwE7__am_pmEvE5am_pm = internal global i64 0, align 8

; Function Attrs: mustprogress uwtable
define dso_local noundef ptr @_ZNKSt3__120__time_get_c_storageIwE7__am_pmEv(ptr noundef nonnull align 8 dereferenceable(8) %0) unnamed_addr #2 align 2 personality ptr @__gxx_personality_v0 {
  %2 = alloca ptr, align 8
  %3 = alloca ptr, align 8
  %4 = alloca i32, align 4
  store ptr %0, ptr %2, align 8, !tbaa !621
  %5 = load atomic i8, ptr @_ZGVZNKSt3__120__time_get_c_storageIwE7__am_pmEvE5am_pm acquire, align 8
  %6 = icmp eq i8 %5, 0
  br i1 %6, label %7, label %13, !prof !104

7:                                                ; preds = %1
  %8 = call i32 @__cxa_guard_acquire(ptr @_ZGVZNKSt3__120__time_get_c_storageIwE7__am_pmEvE5am_pm) #13
  %9 = icmp ne i32 %8, 0
  br i1 %9, label %10, label %13

10:                                               ; preds = %7
  %11 = invoke noundef ptr @_ZNSt3__1L11init_wam_pmEv()
          to label %12 unwind label %15

12:                                               ; preds = %10
  store ptr %11, ptr @_ZZNKSt3__120__time_get_c_storageIwE7__am_pmEvE5am_pm, align 8, !tbaa !26
  call void @__cxa_guard_release(ptr @_ZGVZNKSt3__120__time_get_c_storageIwE7__am_pmEvE5am_pm) #13
  br label %13

13:                                               ; preds = %12, %7, %1
  %14 = load ptr, ptr @_ZZNKSt3__120__time_get_c_storageIwE7__am_pmEvE5am_pm, align 8, !tbaa !26
  ret ptr %14

15:                                               ; preds = %10
  %16 = landingpad { ptr, i32 }
          cleanup
  %17 = extractvalue { ptr, i32 } %16, 0
  store ptr %17, ptr %3, align 8
  %18 = extractvalue { ptr, i32 } %16, 1
  store i32 %18, ptr %4, align 4
  call void @__cxa_guard_abort(ptr @_ZGVZNKSt3__120__time_get_c_storageIwE7__am_pmEvE5am_pm) #13
  br label %19

19:                                               ; preds = %15
  %20 = load ptr, ptr %3, align 8
  %21 = load i32, ptr %4, align 4
  %22 = insertvalue { ptr, i32 } poison, ptr %20, 0
  %23 = insertvalue { ptr, i32 } %22, i32 %21, 1
  resume { ptr, i32 } %23
}