; Function Attrs: mustprogress nofree nounwind uwtable
define dso_local noundef ptr @_ZNKSt3__120__time_get_c_storageIwE7__am_pmEv(ptr nonnull readnone align 8 captures(none) %0) unnamed_addr #30 align 2 personality ptr @__gxx_personality_v0 {
  %2 = load atomic i8, ptr @_ZGVZNKSt3__120__time_get_c_storageIwE7__am_pmEvE5am_pm acquire, align 8
  %3 = icmp eq i8 %2, 0
  br i1 %3, label %4, label %7, !prof !81

4:                                                ; preds = %1
  %5 = tail call i32 @__cxa_guard_acquire(ptr nonnull @_ZGVZNKSt3__120__time_get_c_storageIwE7__am_pmEvE5am_pm) #45
  %.not = icmp eq i32 %5, 0
  br i1 %.not, label %7, label %6

6:                                                ; preds = %4
  tail call fastcc void @_ZNSt3__1L11init_wam_pmEv()
  store ptr @_ZZNSt3__1L11init_wam_pmEvE5am_pm, ptr @_ZZNKSt3__120__time_get_c_storageIwE7__am_pmEvE5am_pm, align 8, !tbaa !493
  tail call void @__cxa_guard_release(ptr nonnull @_ZGVZNKSt3__120__time_get_c_storageIwE7__am_pmEvE5am_pm) #45
  br label %7

7:                                                ; preds = %6, %4, %1
  %8 = load ptr, ptr @_ZZNKSt3__120__time_get_c_storageIwE7__am_pmEvE5am_pm, align 8, !tbaa !493
  ret ptr %8
}